target datalayout = "e-m:e-p270:32:32-p271:32:32-p272:64:64-i64:64-i128:128-f80:128-n8:16:32:64-S128"
target triple = "x86_64-pc-linux-gnu"

%"class.std::vector.65" = type { %"struct.std::_Vector_base.66" }
%"struct.std::_Vector_base.66" = type { %"struct.std::_Vector_base<gmx::Selection, std::allocator<gmx::Selection>>::_Vector_impl" }
%"struct.std::_Vector_base<gmx::Selection, std::allocator<gmx::Selection>>::_Vector_impl" = type { %"struct.std::_Vector_base<gmx::Selection, std::allocator<gmx::Selection>>::_Vector_impl_data" }
%"struct.std::_Vector_base<gmx::Selection, std::allocator<gmx::Selection>>::_Vector_impl_data" = type { ptr, ptr, ptr }
%"class.gmx::StandardInputStream" = type { %"class.gmx::TextInputStream" }
%"class.gmx::TextInputStream" = type { ptr }

@_ZTVN3gmx19StandardInputStreamE = external unnamed_addr constant { [6 x ptr] }, align 8
@_ZTVN3gmx15TextInputStreamE = linkonce_odr unnamed_addr constant { [6 x ptr] } { [6 x ptr] [ptr null, ptr @_ZTIN3gmx15TextInputStreamE, ptr @_ZN3gmx15TextInputStreamD2Ev, ptr @_ZN3gmx15TextInputStreamD0Ev, ptr @__cxa_pure_virtual, ptr @__cxa_pure_virtual] }, comdat, align 8

; Function Attrs: mustprogress nounwind uwtable
define linkonce_odr void @_ZN3gmx15TextInputStreamD2Ev(ptr noundef nonnull align 8 dereferenceable(8) %0) unnamed_addr #3 comdat align 2 {
  %2 = alloca ptr, align 8
  store ptr %0, ptr %2, align 8
  ret void
}

; Function Attrs: mustprogress nounwind uwtable
define linkonce_odr void @_ZN3gmx15TextInputStreamC2Ev(ptr noundef nonnull align 8 dereferenceable(8) %0) unnamed_addr #3 comdat align 2 {
  %2 = alloca ptr, align 8
  store ptr %0, ptr %2, align 8
  %3 = load ptr, ptr %2, align 8
  store ptr getelementptr inbounds inrange(-16, 32) ({ [6 x ptr] }, ptr @_ZTVN3gmx15TextInputStreamE, i32 0, i32 0, i32 2), ptr %3, align 8
  ret void
}

; Function Attrs: mustprogress nounwind uwtable
define linkonce_odr void @_ZN3gmx19StandardInputStreamD2Ev(ptr noundef nonnull align 8 dereferenceable(8) %0) unnamed_addr #3 comdat align 2 {
  %2 = alloca ptr, align 8
  store ptr %0, ptr %2, align 8
  %3 = load ptr, ptr %2, align 8
  call void @_ZN3gmx15TextInputStreamD2Ev(ptr noundef nonnull align 8 dereferenceable(8) %3) #14
  ret void
}

; Function Attrs: mustprogress nounwind uwtable
define linkonce_odr void @_ZN3gmx19StandardInputStreamC2Ev(ptr noundef nonnull align 8 dereferenceable(8) %0) unnamed_addr #3 comdat align 2 {
  %2 = alloca ptr, align 8
  store ptr %0, ptr %2, align 8
  %3 = load ptr, ptr %2, align 8
  call void @_ZN3gmx15TextInputStreamC2Ev(ptr noundef nonnull align 8 dereferenceable(8) %3) #14
  store ptr getelementptr inbounds inrange(-16, 32) ({ [6 x ptr] }, ptr @_ZTVN3gmx19StandardInputStreamE, i32 0, i32 0, i32 2), ptr %3, align 8
  ret void
}

; Function Attrs: mustprogress uwtable
define void @_ZN3gmx19SelectionCollection14parseFromStdinEibRKNSt7__cxx1112basic_stringIcSt11char_traitsIcESaIcEEE(ptr dead_on_unwind noalias writable sret(%"class.std::vector.65") align 8 %0, ptr noundef nonnull align 8 dereferenceable(8) %1, i32 noundef %2, i1 noundef zeroext %3, ptr noundef nonnull align 8 dereferenceable(32) %4) #0 align 2 personality ptr @__gxx_personality_v0 {
  %6 = alloca ptr, align 8
  %7 = alloca ptr, align 8
  %8 = alloca i32, align 4
  %9 = alloca i8, align 1
  %10 = alloca ptr, align 8
  %11 = alloca %"class.gmx::StandardInputStream", align 8
  %12 = alloca ptr, align 8
  %13 = alloca i32, align 4
  store ptr %0, ptr %6, align 8
  store ptr %1, ptr %7, align 8
  store i32 %2, ptr %8, align 4
  %14 = zext i1 %3 to i8
  store i8 %14, ptr %9, align 1
  store ptr %4, ptr %10, align 8
  %15 = load ptr, ptr %7, align 8
  call void @_ZN3gmx19StandardInputStreamC2Ev(ptr noundef nonnull align 8 dereferenceable(8) %11) #14
  %16 = load i32, ptr %8, align 4
  %17 = load i8, ptr %9, align 1
  %18 = trunc i8 %17 to i1
  br i1 %18, label %19, label %22

19:                                               ; preds = %5
  %20 = invoke noundef nonnull align 8 dereferenceable(16) ptr @_ZN3gmx14TextOutputFile13standardErrorEv()
          to label %21 unwind label %27

21:                                               ; preds = %19
  br label %23

22:                                               ; preds = %5
  br label %23

23:                                               ; preds = %22, %21
  %24 = phi ptr [ %20, %21 ], [ null, %22 ]
  %25 = load ptr, ptr %10, align 8
  invoke void @_ZN3gmx19SelectionCollection16parseInteractiveEiPNS_15TextInputStreamEPNS_16TextOutputStreamERKNSt7__cxx1112basic_stringIcSt11char_traitsIcESaIcEEE(ptr dead_on_unwind writable sret(%"class.std::vector.65") align 8 %0, ptr noundef nonnull align 8 dereferenceable(8) %15, i32 noundef %16, ptr noundef %11, ptr noundef %24, ptr noundef nonnull align 8 dereferenceable(32) %25)
          to label %26 unwind label %27

26:                                               ; preds = %23
  call void @_ZN3gmx19StandardInputStreamD2Ev(ptr noundef nonnull align 8 dereferenceable(8) %11) #14
  ret void

27:                                               ; preds = %23, %19
  %28 = landingpad { ptr, i32 }
          cleanup
  %29 = extractvalue { ptr, i32 } %28, 0
  store ptr %29, ptr %12, align 8
  %30 = extractvalue { ptr, i32 } %28, 1
  store i32 %30, ptr %13, align 4
  call void @_ZN3gmx19StandardInputStreamD2Ev(ptr noundef nonnull align 8 dereferenceable(8) %11) #14
  br label %31

31:                                               ; preds = %27
  %32 = load ptr, ptr %12, align 8
  %33 = load i32, ptr %13, align 4
  %34 = insertvalue { ptr, i32 } poison, ptr %32, 0
  %35 = insertvalue { ptr, i32 } %34, i32 %33, 1
  resume { ptr, i32 } %35
}