; Function Attrs: mustprogress uwtable
define void @_ZN3gmx19SelectionCollection14parseFromStdinEibRKNSt7__cxx1112basic_stringIcSt11char_traitsIcESaIcEEE(ptr dead_on_unwind noalias nocapture writable sret(%"class.std::vector.65") align 8 %0, ptr nocapture noundef nonnull readonly align 8 dereferenceable(8) %1, i32 noundef %2, i1 noundef zeroext %3, ptr noundef nonnull align 8 dereferenceable(32) %4) local_unnamed_addr #0 align 2 personality ptr @__gxx_personality_v0 {
  %6 = alloca %"class.gmx::StandardInputStream", align 8
  store ptr getelementptr inbounds inrange(-16, 32) ({ [6 x ptr] }, ptr @_ZTVN3gmx19StandardInputStreamE, i64 0, i32 0, i64 2), ptr %6, align 8
  br i1 %3, label %7, label %9

7:                                                ; preds = %5
  %8 = tail call noundef nonnull align 8 dereferenceable(16) ptr @_ZN3gmx14TextOutputFile13standardErrorEv()
  br label %9

9:                                                ; preds = %7, %5
  %10 = phi ptr [ %8, %7 ], [ null, %5 ]
  call void @_ZN3gmx19SelectionCollection16parseInteractiveEiPNS_15TextInputStreamEPNS_16TextOutputStreamERKNSt7__cxx1112basic_stringIcSt11char_traitsIcESaIcEEE(ptr dead_on_unwind writable sret(%"class.std::vector.65") align 8 %0, ptr noundef nonnull align 8 dereferenceable(8) %1, i32 noundef %2, ptr noundef nonnull %6, ptr noundef %10, ptr noundef nonnull align 8 dereferenceable(32) %4)
  ret void
}